target datalayout = "e-m:e-p270:32:32-p271:32:32-p272:64:64-i64:64-i128:128-f80:128-n8:16:32:64-S128"
target triple = "x86_64-pc-linux-gnu"

%struct.UCharIterator = type { ptr, i32, i32, i32, i32, i32, ptr, ptr, ptr, ptr, ptr, ptr, ptr, ptr, ptr, ptr }

; Function Attrs: mustprogress nounwind uwtable
define void @uiter_setUTF8_77(ptr noundef %0, ptr noundef %1, i32 noundef %2) #3 {
  %4 = alloca ptr, align 8
  %5 = alloca ptr, align 8
  %6 = alloca i32, align 4
  store ptr %0, ptr %4, align 8, !tbaa !3
  store ptr %1, ptr %5, align 8, !tbaa !18
  store i32 %2, ptr %6, align 4, !tbaa !10
  %7 = load ptr, ptr %4, align 8, !tbaa !3
  %8 = icmp ne ptr %7, null
  br i1 %8, label %9, label %49

9:                                                ; preds = %3
  %10 = load ptr, ptr %5, align 8, !tbaa !18
  %11 = icmp ne ptr %10, null
  br i1 %11, label %12, label %46

12:                                               ; preds = %9
  %13 = load i32, ptr %6, align 4, !tbaa !10
  %14 = icmp sge i32 %13, -1
  br i1 %14, label %15, label %46

15:                                               ; preds = %12
  %16 = load ptr, ptr %4, align 8, !tbaa !3
  call void @llvm.memcpy.p0.p0.i64(ptr align 8 %16, ptr align 8 @_ZL12utf8Iterator, i64 112, i1 false), !tbaa.struct !12
  %17 = load ptr, ptr %5, align 8, !tbaa !18
  %18 = load ptr, ptr %4, align 8, !tbaa !3
  %19 = getelementptr inbounds nuw %struct.UCharIterator, ptr %18, i32 0, i32 0
  store ptr %17, ptr %19, align 8, !tbaa !14
  %20 = load i32, ptr %6, align 4, !tbaa !10
  %21 = icmp sge i32 %20, 0
  br i1 %21, label %22, label %26

22:                                               ; preds = %15
  %23 = load i32, ptr %6, align 4, !tbaa !10
  %24 = load ptr, ptr %4, align 8, !tbaa !3
  %25 = getelementptr inbounds nuw %struct.UCharIterator, ptr %24, i32 0, i32 4
  store i32 %23, ptr %25, align 4, !tbaa !17
  br label %32

26:                                               ; preds = %15
  %27 = load ptr, ptr %5, align 8, !tbaa !18
  %28 = call i64 @strlen(ptr noundef %27) #9
  %29 = trunc i64 %28 to i32
  %30 = load ptr, ptr %4, align 8, !tbaa !3
  %31 = getelementptr inbounds nuw %struct.UCharIterator, ptr %30, i32 0, i32 4
  store i32 %29, ptr %31, align 4, !tbaa !17
  br label %32

32:                                               ; preds = %26, %22
  %33 = load ptr, ptr %4, align 8, !tbaa !3
  %34 = getelementptr inbounds nuw %struct.UCharIterator, ptr %33, i32 0, i32 4
  %35 = load i32, ptr %34, align 4, !tbaa !17
  %36 = icmp sle i32 %35, 1
  br i1 %36, label %37, label %41

37:                                               ; preds = %32
  %38 = load ptr, ptr %4, align 8, !tbaa !3
  %39 = getelementptr inbounds nuw %struct.UCharIterator, ptr %38, i32 0, i32 4
  %40 = load i32, ptr %39, align 4, !tbaa !17
  br label %42

41:                                               ; preds = %32
  br label %42

42:                                               ; preds = %41, %37
  %43 = phi i32 [ %40, %37 ], [ -1, %41 ]
  %44 = load ptr, ptr %4, align 8, !tbaa !3
  %45 = getelementptr inbounds nuw %struct.UCharIterator, ptr %44, i32 0, i32 1
  store i32 %43, ptr %45, align 8, !tbaa !16
  br label %48

46:                                               ; preds = %12, %9
  %47 = load ptr, ptr %4, align 8, !tbaa !3
  call void @llvm.memcpy.p0.p0.i64(ptr align 8 %47, ptr align 8 @_ZL12noopIterator, i64 112, i1 false), !tbaa.struct !12
  br label %48

48:                                               ; preds = %46, %42
  br label %49

49:                                               ; preds = %48, %3
  ret void
}