; Function Attrs: mustprogress nofree nounwind willreturn memory(argmem: readwrite) uwtable
define void @uiter_setUTF8_77(ptr noundef writeonly %0, ptr noundef %1, i32 noundef %2) local_unnamed_addr #4 {
  %.not = icmp eq ptr %0, null
  br i1 %.not, label %17, label %4

4:                                                ; preds = %3
  %5 = icmp ne ptr %1, null
  %6 = icmp sgt i32 %2, -2
  %or.cond = and i1 %5, %6
  br i1 %or.cond, label %7, label %16

7:                                                ; preds = %4
  tail call void @llvm.memcpy.p0.p0.i64(ptr noundef nonnull align 8 dereferenceable(112) %0, ptr noundef nonnull align 8 dereferenceable(112) @_ZL12utf8Iterator, i64 112, i1 false), !tbaa.struct !3
  store ptr %1, ptr %0, align 8, !tbaa !10
  %8 = icmp sgt i32 %2, -1
  br i1 %8, label %12, label %9

9:                                                ; preds = %7
  %10 = tail call i64 @strlen(ptr noundef nonnull dereferenceable(1) %1) #14
  %11 = trunc i64 %10 to i32
  br label %12

12:                                               ; preds = %7, %9
  %.sink = phi i32 [ %11, %9 ], [ %2, %7 ]
  %13 = getelementptr inbounds nuw i8, ptr %0, i64 20
  store i32 %.sink, ptr %13, align 4, !tbaa !13
  %14 = icmp slt i32 %.sink, 2
  %spec.select = select i1 %14, i32 %.sink, i32 -1
  %15 = getelementptr inbounds nuw i8, ptr %0, i64 8
  store i32 %spec.select, ptr %15, align 8, !tbaa !12
  br label %17

16:                                               ; preds = %4
  tail call void @llvm.memcpy.p0.p0.i64(ptr noundef nonnull align 8 dereferenceable(112) %0, ptr noundef nonnull align 8 dereferenceable(112) @_ZL12noopIterator, i64 112, i1 false), !tbaa.struct !3
  br label %17

17:                                               ; preds = %12, %16, %3
  ret void
}